target datalayout = "e-m:e-p270:32:32-p271:32:32-p272:64:64-i64:64-i128:128-f80:128-n8:16:32:64-S128"
target triple = "x86_64-pc-linux-gnu"

%"class.std::basic_string_view" = type { i64, ptr }
%"class.absl::lts_20240722::AlphaNum" = type { %"class.std::basic_string_view", [32 x i8] }
%"class.grpc_core::(anonymous namespace)::MetadataSizeLimitExceededEncoder" = type { ptr }
%"class.std::initializer_list" = type { ptr, i64 }

@.str.35 = private unnamed_addr constant [2 x i8] c" \00", align 1
@.str.36 = private unnamed_addr constant [2 x i8] c":\00", align 1
@.str.37 = private unnamed_addr constant [2 x i8] c"B\00", align 1

; Function Attrs: noinline noreturn nounwind uwtable
define linkonce_odr hidden void @__clang_call_terminate(ptr noundef %0) #11 comdat {
  %2 = call ptr @__cxa_begin_catch(ptr %0) #3
  call void @_ZSt9terminatev() #20
  unreachable
}

; Function Attrs: mustprogress nounwind uwtable
define linkonce_odr noundef i64 @_ZNSt11char_traitsIcE6lengthEPKc(ptr noundef %0) #5 comdat align 2 {
  %2 = alloca ptr, align 8
  store ptr %0, ptr %2, align 8, !tbaa !30
  %3 = load ptr, ptr %2, align 8, !tbaa !30
  %4 = call i64 @strlen(ptr noundef %3) #3
  ret i64 %4
}

; Function Attrs: mustprogress nounwind uwtable
define linkonce_odr void @_ZNSt17basic_string_viewIcSt11char_traitsIcEEC2Ev(ptr noundef nonnull align 8 dereferenceable(16) %0) unnamed_addr #5 comdat align 2 {
  %2 = alloca ptr, align 8
  store ptr %0, ptr %2, align 8, !tbaa !42
  %3 = load ptr, ptr %2, align 8
  %4 = getelementptr inbounds nuw %"class.std::basic_string_view", ptr %3, i32 0, i32 0
  store i64 0, ptr %4, align 8, !tbaa !44
  %5 = getelementptr inbounds nuw %"class.std::basic_string_view", ptr %3, i32 0, i32 1
  store ptr null, ptr %5, align 8, !tbaa !46
  ret void
}

; Function Attrs: mustprogress nounwind uwtable
define linkonce_odr void @_ZNSt17basic_string_viewIcSt11char_traitsIcEEC2EPKc(ptr noundef nonnull align 8 dereferenceable(16) %0, ptr noundef nonnull %1) unnamed_addr #5 comdat align 2 personality ptr @__gxx_personality_v0 {
  %3 = alloca ptr, align 8
  %4 = alloca ptr, align 8
  store ptr %0, ptr %3, align 8, !tbaa !42
  store ptr %1, ptr %4, align 8, !tbaa !30
  %5 = load ptr, ptr %3, align 8
  %6 = getelementptr inbounds nuw %"class.std::basic_string_view", ptr %5, i32 0, i32 0
  %7 = load ptr, ptr %4, align 8, !tbaa !30
  %8 = invoke noundef i64 @_ZNSt11char_traitsIcE6lengthEPKc(ptr noundef %7)
          to label %9 unwind label %12

9:                                                ; preds = %2
  store i64 %8, ptr %6, align 8, !tbaa !44
  %10 = getelementptr inbounds nuw %"class.std::basic_string_view", ptr %5, i32 0, i32 1
  %11 = load ptr, ptr %4, align 8, !tbaa !30
  store ptr %11, ptr %10, align 8, !tbaa !46
  ret void

12:                                               ; preds = %2
  %13 = landingpad { ptr, i32 }
          catch ptr null
  %14 = extractvalue { ptr, i32 } %13, 0
  call void @__clang_call_terminate(ptr %14) #20
  unreachable
}

; Function Attrs: mustprogress nounwind uwtable
define linkonce_odr { i64, ptr } @_ZNK4absl12lts_202407228AlphaNum5PieceEv(ptr noundef nonnull align 8 dereferenceable(48) %0) #5 comdat align 2 {
  %2 = alloca %"class.std::basic_string_view", align 8
  %3 = alloca ptr, align 8
  store ptr %0, ptr %3, align 8, !tbaa !55
  %4 = load ptr, ptr %3, align 8
  %5 = getelementptr inbounds nuw %"class.absl::lts_20240722::AlphaNum", ptr %4, i32 0, i32 0
  call void @llvm.memcpy.p0.p0.i64(ptr align 8 %2, ptr align 8 %5, i64 16, i1 false), !tbaa.struct !122
  %6 = load { i64, ptr }, ptr %2, align 8
  ret { i64, ptr } %6
}

; Function Attrs: mustprogress nounwind uwtable
define linkonce_odr void @_ZNSt17basic_string_viewIcSt11char_traitsIcEEC2EPKcm(ptr noundef nonnull align 8 dereferenceable(16) %0, ptr noundef %1, i64 noundef %2) unnamed_addr #5 comdat align 2 {
  %4 = alloca ptr, align 8
  %5 = alloca ptr, align 8
  %6 = alloca i64, align 8
  store ptr %0, ptr %4, align 8, !tbaa !42
  store ptr %1, ptr %5, align 8, !tbaa !30
  store i64 %2, ptr %6, align 8, !tbaa !79
  %7 = load ptr, ptr %4, align 8
  %8 = getelementptr inbounds nuw %"class.std::basic_string_view", ptr %7, i32 0, i32 0
  %9 = load i64, ptr %6, align 8, !tbaa !79
  store i64 %9, ptr %8, align 8, !tbaa !44
  %10 = getelementptr inbounds nuw %"class.std::basic_string_view", ptr %7, i32 0, i32 1
  %11 = load ptr, ptr %5, align 8, !tbaa !30
  store ptr %11, ptr %10, align 8, !tbaa !46
  ret void
}

; Function Attrs: mustprogress nounwind uwtable
define linkonce_odr { i64, ptr } @_ZN4absl12lts_2024072218NullSafeStringViewEPKc(ptr noundef %0) #5 comdat {
  %2 = alloca %"class.std::basic_string_view", align 8
  %3 = alloca ptr, align 8
  store ptr %0, ptr %3, align 8, !tbaa !30
  %4 = load ptr, ptr %3, align 8, !tbaa !30
  %5 = icmp ne ptr %4, null
  br i1 %5, label %6, label %8

6:                                                ; preds = %1
  %7 = load ptr, ptr %3, align 8, !tbaa !30
  call void @_ZNSt17basic_string_viewIcSt11char_traitsIcEEC2EPKc(ptr noundef nonnull align 8 dereferenceable(16) %2, ptr noundef %7) #3
  br label %9

8:                                                ; preds = %1
  call void @_ZNSt17basic_string_viewIcSt11char_traitsIcEEC2Ev(ptr noundef nonnull align 8 dereferenceable(16) %2) #3
  br label %9

9:                                                ; preds = %8, %6
  %10 = load { i64, ptr }, ptr %2, align 8
  ret { i64, ptr } %10
}

; Function Attrs: inlinehint mustprogress uwtable
define linkonce_odr void @_ZN4absl12lts_202407229StrAppendIJEEEvPNSt7__cxx1112basic_stringIcSt11char_traitsIcESaIcEEERKNS0_8AlphaNumESB_SB_SB_SB_DpRKT_(ptr noundef %0, ptr noundef nonnull align 8 dereferenceable(48) %1, ptr noundef nonnull align 8 dereferenceable(48) %2, ptr noundef nonnull align 8 dereferenceable(48) %3, ptr noundef nonnull align 8 dereferenceable(48) %4, ptr noundef nonnull align 8 dereferenceable(48) %5) #6 comdat {
  %7 = alloca ptr, align 8
  %8 = alloca ptr, align 8
  %9 = alloca ptr, align 8
  %10 = alloca ptr, align 8
  %11 = alloca ptr, align 8
  %12 = alloca ptr, align 8
  %13 = alloca %"class.std::initializer_list", align 8
  %14 = alloca [5 x %"class.std::basic_string_view"], align 8
  store ptr %0, ptr %7, align 8, !tbaa !53
  store ptr %1, ptr %8, align 8, !tbaa !55
  store ptr %2, ptr %9, align 8, !tbaa !55
  store ptr %3, ptr %10, align 8, !tbaa !55
  store ptr %4, ptr %11, align 8, !tbaa !55
  store ptr %5, ptr %12, align 8, !tbaa !55
  %15 = load ptr, ptr %7, align 8, !tbaa !53
  call void @llvm.lifetime.start.p0(i64 80, ptr %14) #3
  %16 = load ptr, ptr %8, align 8, !tbaa !55
  %17 = call { i64, ptr } @_ZNK4absl12lts_202407228AlphaNum5PieceEv(ptr noundef nonnull align 8 dereferenceable(48) %16)
  %18 = getelementptr inbounds nuw { i64, ptr }, ptr %14, i32 0, i32 0
  %19 = extractvalue { i64, ptr } %17, 0
  store i64 %19, ptr %18, align 8
  %20 = getelementptr inbounds nuw { i64, ptr }, ptr %14, i32 0, i32 1
  %21 = extractvalue { i64, ptr } %17, 1
  store ptr %21, ptr %20, align 8
  %22 = getelementptr inbounds %"class.std::basic_string_view", ptr %14, i64 1
  %23 = load ptr, ptr %9, align 8, !tbaa !55
  %24 = call { i64, ptr } @_ZNK4absl12lts_202407228AlphaNum5PieceEv(ptr noundef nonnull align 8 dereferenceable(48) %23)
  %25 = getelementptr inbounds nuw { i64, ptr }, ptr %22, i32 0, i32 0
  %26 = extractvalue { i64, ptr } %24, 0
  store i64 %26, ptr %25, align 8
  %27 = getelementptr inbounds nuw { i64, ptr }, ptr %22, i32 0, i32 1
  %28 = extractvalue { i64, ptr } %24, 1
  store ptr %28, ptr %27, align 8
  %29 = getelementptr inbounds %"class.std::basic_string_view", ptr %14, i64 2
  %30 = load ptr, ptr %10, align 8, !tbaa !55
  %31 = call { i64, ptr } @_ZNK4absl12lts_202407228AlphaNum5PieceEv(ptr noundef nonnull align 8 dereferenceable(48) %30)
  %32 = getelementptr inbounds nuw { i64, ptr }, ptr %29, i32 0, i32 0
  %33 = extractvalue { i64, ptr } %31, 0
  store i64 %33, ptr %32, align 8
  %34 = getelementptr inbounds nuw { i64, ptr }, ptr %29, i32 0, i32 1
  %35 = extractvalue { i64, ptr } %31, 1
  store ptr %35, ptr %34, align 8
  %36 = getelementptr inbounds %"class.std::basic_string_view", ptr %14, i64 3
  %37 = load ptr, ptr %11, align 8, !tbaa !55
  %38 = call { i64, ptr } @_ZNK4absl12lts_202407228AlphaNum5PieceEv(ptr noundef nonnull align 8 dereferenceable(48) %37)
  %39 = getelementptr inbounds nuw { i64, ptr }, ptr %36, i32 0, i32 0
  %40 = extractvalue { i64, ptr } %38, 0
  store i64 %40, ptr %39, align 8
  %41 = getelementptr inbounds nuw { i64, ptr }, ptr %36, i32 0, i32 1
  %42 = extractvalue { i64, ptr } %38, 1
  store ptr %42, ptr %41, align 8
  %43 = getelementptr inbounds %"class.std::basic_string_view", ptr %14, i64 4
  %44 = load ptr, ptr %12, align 8, !tbaa !55
  %45 = call { i64, ptr } @_ZNK4absl12lts_202407228AlphaNum5PieceEv(ptr noundef nonnull align 8 dereferenceable(48) %44)
  %46 = getelementptr inbounds nuw { i64, ptr }, ptr %43, i32 0, i32 0
  %47 = extractvalue { i64, ptr } %45, 0
  store i64 %47, ptr %46, align 8
  %48 = getelementptr inbounds nuw { i64, ptr }, ptr %43, i32 0, i32 1
  %49 = extractvalue { i64, ptr } %45, 1
  store ptr %49, ptr %48, align 8
  %50 = getelementptr inbounds nuw %"class.std::initializer_list", ptr %13, i32 0, i32 0
  store ptr %14, ptr %50, align 8, !tbaa !72
  %51 = getelementptr inbounds nuw %"class.std::initializer_list", ptr %13, i32 0, i32 1
  store i64 5, ptr %51, align 8, !tbaa !74
  %52 = getelementptr inbounds nuw { ptr, i64 }, ptr %13, i32 0, i32 0
  %53 = load ptr, ptr %52, align 8
  %54 = getelementptr inbounds nuw { ptr, i64 }, ptr %13, i32 0, i32 1
  %55 = load i64, ptr %54, align 8
  call void @_ZN4absl12lts_2024072216strings_internal12AppendPiecesEPNSt7__cxx1112basic_stringIcSt11char_traitsIcESaIcEEESt16initializer_listISt17basic_string_viewIcS5_EE(ptr noundef %15, ptr %53, i64 %55)
  call void @llvm.lifetime.end.p0(i64 80, ptr %14) #3
  ret void
}

; Function Attrs: mustprogress uwtable
define linkonce_odr void @_ZN4absl12lts_202407228AlphaNumC2Em(ptr noundef nonnull align 8 dereferenceable(48) %0, i64 noundef %1) unnamed_addr #4 comdat align 2 {
  %3 = alloca ptr, align 8
  %4 = alloca i64, align 8
  store ptr %0, ptr %3, align 8, !tbaa !55
  store i64 %1, ptr %4, align 8, !tbaa !79
  %5 = load ptr, ptr %3, align 8
  %6 = getelementptr inbounds nuw %"class.absl::lts_20240722::AlphaNum", ptr %5, i32 0, i32 0
  %7 = getelementptr inbounds nuw %"class.absl::lts_20240722::AlphaNum", ptr %5, i32 0, i32 1
  %8 = getelementptr inbounds [32 x i8], ptr %7, i64 0, i64 0
  %9 = load i64, ptr %4, align 8, !tbaa !79
  %10 = getelementptr inbounds nuw %"class.absl::lts_20240722::AlphaNum", ptr %5, i32 0, i32 1
  %11 = getelementptr inbounds [32 x i8], ptr %10, i64 0, i64 0
  %12 = call noundef ptr @_ZN4absl12lts_2024072216numbers_internal15FastIntToBufferEmPc(i64 noundef %9, ptr noundef %11)
  %13 = getelementptr inbounds nuw %"class.absl::lts_20240722::AlphaNum", ptr %5, i32 0, i32 1
  %14 = getelementptr inbounds [32 x i8], ptr %13, i64 0, i64 0
  %15 = ptrtoint ptr %12 to i64
  %16 = ptrtoint ptr %14 to i64
  %17 = sub i64 %15, %16
  call void @_ZNSt17basic_string_viewIcSt11char_traitsIcEEC2EPKcm(ptr noundef nonnull align 8 dereferenceable(16) %6, ptr noundef %8, i64 noundef %17) #3
  ret void
}

; Function Attrs: mustprogress nounwind uwtable
define internal noundef i64 @_ZN9grpc_core15hpack_constantsL12SizeForEntryEmm(i64 noundef %0, i64 noundef %1) #5 {
  %3 = alloca i64, align 8
  %4 = alloca i64, align 8
  store i64 %0, ptr %3, align 8, !tbaa !79
  store i64 %1, ptr %4, align 8, !tbaa !79
  %5 = load i64, ptr %3, align 8, !tbaa !79
  %6 = load i64, ptr %4, align 8, !tbaa !79
  %7 = add i64 %5, %6
  %8 = add i64 %7, 32
  ret i64 %8
}

; Function Attrs: mustprogress nounwind uwtable
define linkonce_odr noundef i64 @_ZNKSt17basic_string_viewIcSt11char_traitsIcEE4sizeEv(ptr noundef nonnull align 8 dereferenceable(16) %0) #5 comdat align 2 {
  %2 = alloca ptr, align 8
  store ptr %0, ptr %2, align 8, !tbaa !42
  %3 = load ptr, ptr %2, align 8
  %4 = getelementptr inbounds nuw %"class.std::basic_string_view", ptr %3, i32 0, i32 0
  %5 = load i64, ptr %4, align 8, !tbaa !44
  ret i64 %5
}

; Function Attrs: mustprogress nounwind uwtable
define linkonce_odr void @_ZN4absl12lts_202407228AlphaNumC2ESt17basic_string_viewIcSt11char_traitsIcEE(ptr noundef nonnull align 8 dereferenceable(48) %0, i64 %1, ptr %2) unnamed_addr #5 comdat align 2 {
  %4 = alloca %"class.std::basic_string_view", align 8
  %5 = alloca ptr, align 8
  %6 = getelementptr inbounds nuw { i64, ptr }, ptr %4, i32 0, i32 0
  store i64 %1, ptr %6, align 8
  %7 = getelementptr inbounds nuw { i64, ptr }, ptr %4, i32 0, i32 1
  store ptr %2, ptr %7, align 8
  store ptr %0, ptr %5, align 8, !tbaa !55
  %8 = load ptr, ptr %5, align 8
  %9 = getelementptr inbounds nuw %"class.absl::lts_20240722::AlphaNum", ptr %8, i32 0, i32 0
  call void @llvm.memcpy.p0.p0.i64(ptr align 8 %9, ptr align 8 %4, i64 16, i1 false), !tbaa.struct !122
  ret void
}

; Function Attrs: mustprogress uwtable
define linkonce_odr void @_ZN4absl12lts_202407228AlphaNumC2EPKc(ptr noundef nonnull align 8 dereferenceable(48) %0, ptr noundef %1) unnamed_addr #4 comdat align 2 {
  %3 = alloca ptr, align 8
  %4 = alloca ptr, align 8
  store ptr %0, ptr %3, align 8, !tbaa !55
  store ptr %1, ptr %4, align 8, !tbaa !30
  %5 = load ptr, ptr %3, align 8
  %6 = load ptr, ptr %4, align 8, !tbaa !30
  %7 = call { i64, ptr } @_ZN4absl12lts_2024072218NullSafeStringViewEPKc(ptr noundef %6)
  %8 = getelementptr inbounds nuw { i64, ptr }, ptr %5, i32 0, i32 0
  %9 = extractvalue { i64, ptr } %7, 0
  store i64 %9, ptr %8, align 8
  %10 = getelementptr inbounds nuw { i64, ptr }, ptr %5, i32 0, i32 1
  %11 = extractvalue { i64, ptr } %7, 1
  store ptr %11, ptr %10, align 8
  ret void
}

; Function Attrs: mustprogress noinline uwtable
define internal void @_ZN9grpc_core12_GLOBAL__N_132MetadataSizeLimitExceededEncoder12AddToSummaryESt17basic_string_viewIcSt11char_traitsIcEEm(ptr noundef nonnull align 8 dereferenceable(8) %0, i64 %1, ptr %2, i64 noundef %3) #15 align 2 {
  %5 = alloca %"class.std::basic_string_view", align 8
  %6 = alloca ptr, align 8
  %7 = alloca i64, align 8
  %8 = alloca %"class.absl::lts_20240722::AlphaNum", align 8
  %9 = alloca %"class.absl::lts_20240722::AlphaNum", align 8
  %10 = alloca %"class.std::basic_string_view", align 8
  %11 = alloca %"class.absl::lts_20240722::AlphaNum", align 8
  %12 = alloca %"class.absl::lts_20240722::AlphaNum", align 8
  %13 = alloca %"class.absl::lts_20240722::AlphaNum", align 8
  %14 = getelementptr inbounds nuw { i64, ptr }, ptr %5, i32 0, i32 0
  store i64 %1, ptr %14, align 8
  %15 = getelementptr inbounds nuw { i64, ptr }, ptr %5, i32 0, i32 1
  store ptr %2, ptr %15, align 8
  store ptr %0, ptr %6, align 8, !tbaa !57
  store i64 %3, ptr %7, align 8, !tbaa !79
  %16 = load ptr, ptr %6, align 8
  %17 = getelementptr inbounds nuw %"class.grpc_core::(anonymous namespace)::MetadataSizeLimitExceededEncoder", ptr %16, i32 0, i32 0
  %18 = load ptr, ptr %17, align 8, !tbaa !251
  call void @llvm.lifetime.start.p0(i64 48, ptr %8) #3
  call void @_ZN4absl12lts_202407228AlphaNumC2EPKc(ptr noundef nonnull align 8 dereferenceable(48) %8, ptr noundef @.str.35)
  call void @llvm.lifetime.start.p0(i64 48, ptr %9) #3
  call void @llvm.memcpy.p0.p0.i64(ptr align 8 %10, ptr align 8 %5, i64 16, i1 false), !tbaa.struct !122
  %19 = getelementptr inbounds nuw { i64, ptr }, ptr %10, i32 0, i32 0
  %20 = load i64, ptr %19, align 8
  %21 = getelementptr inbounds nuw { i64, ptr }, ptr %10, i32 0, i32 1
  %22 = load ptr, ptr %21, align 8
  call void @_ZN4absl12lts_202407228AlphaNumC2ESt17basic_string_viewIcSt11char_traitsIcEE(ptr noundef nonnull align 8 dereferenceable(48) %9, i64 %20, ptr %22)
  call void @llvm.lifetime.start.p0(i64 48, ptr %11) #3
  call void @_ZN4absl12lts_202407228AlphaNumC2EPKc(ptr noundef nonnull align 8 dereferenceable(48) %11, ptr noundef @.str.36)
  call void @llvm.lifetime.start.p0(i64 48, ptr %12) #3
  %23 = call noundef i64 @_ZNKSt17basic_string_viewIcSt11char_traitsIcEE4sizeEv(ptr noundef nonnull align 8 dereferenceable(16) %5) #3
  %24 = load i64, ptr %7, align 8, !tbaa !79
  %25 = call noundef i64 @_ZN9grpc_core15hpack_constantsL12SizeForEntryEmm(i64 noundef %23, i64 noundef %24) #3
  call void @_ZN4absl12lts_202407228AlphaNumC2Em(ptr noundef nonnull align 8 dereferenceable(48) %12, i64 noundef %25)
  call void @llvm.lifetime.start.p0(i64 48, ptr %13) #3
  call void @_ZN4absl12lts_202407228AlphaNumC2EPKc(ptr noundef nonnull align 8 dereferenceable(48) %13, ptr noundef @.str.37)
  call void @_ZN4absl12lts_202407229StrAppendIJEEEvPNSt7__cxx1112basic_stringIcSt11char_traitsIcESaIcEEERKNS0_8AlphaNumESB_SB_SB_SB_DpRKT_(ptr noundef %18, ptr noundef nonnull align 8 dereferenceable(48) %8, ptr noundef nonnull align 8 dereferenceable(48) %9, ptr noundef nonnull align 8 dereferenceable(48) %11, ptr noundef nonnull align 8 dereferenceable(48) %12, ptr noundef nonnull align 8 dereferenceable(48) %13)
  call void @llvm.lifetime.end.p0(i64 48, ptr %13) #3
  call void @llvm.lifetime.end.p0(i64 48, ptr %12) #3
  call void @llvm.lifetime.end.p0(i64 48, ptr %11) #3
  call void @llvm.lifetime.end.p0(i64 48, ptr %9) #3
  call void @llvm.lifetime.end.p0(i64 48, ptr %8) #3
  ret void
}