; Function Attrs: mustprogress noinline uwtable
define internal fastcc void @_ZN9grpc_core12_GLOBAL__N_132MetadataSizeLimitExceededEncoder12AddToSummaryESt17basic_string_viewIcSt11char_traitsIcEEm(ptr %.0.val, i64 %0, ptr %1, i64 noundef %2) unnamed_addr #14 align 2 personality ptr @__gxx_personality_v0 {
  %4 = alloca [5 x %"class.std::basic_string_view"], align 8
  %5 = alloca %"class.absl::lts_20240722::AlphaNum", align 8
  call void @llvm.lifetime.start.p0(i64 48, ptr nonnull %5) #19
  %6 = add i64 %0, 32
  %7 = add i64 %6, %2
  %8 = getelementptr inbounds nuw i8, ptr %5, i64 16
  %9 = call noundef ptr @_ZN4absl12lts_2024072216numbers_internal15FastIntToBufferEmPc(i64 noundef %7, ptr noundef nonnull %8)
  %10 = ptrtoint ptr %9 to i64
  %11 = ptrtoint ptr %8 to i64
  %12 = sub i64 %10, %11
  store i64 %12, ptr %5, align 8, !tbaa !172
  %13 = getelementptr inbounds nuw i8, ptr %5, i64 8
  store ptr %8, ptr %13, align 8, !tbaa !174
  call void @llvm.lifetime.start.p0(i64 80, ptr nonnull %4) #19
  store i64 1, ptr %4, align 8
  %14 = getelementptr inbounds nuw i8, ptr %4, i64 8
  store ptr @.str.35, ptr %14, align 8
  %15 = getelementptr inbounds nuw i8, ptr %4, i64 16
  store i64 %0, ptr %15, align 8
  %16 = getelementptr inbounds nuw i8, ptr %4, i64 24
  store ptr %1, ptr %16, align 8
  %17 = getelementptr inbounds nuw i8, ptr %4, i64 32
  store i64 1, ptr %17, align 8
  %18 = getelementptr inbounds nuw i8, ptr %4, i64 40
  store ptr @.str.36, ptr %18, align 8
  %19 = getelementptr inbounds nuw i8, ptr %4, i64 48
  store i64 %12, ptr %19, align 8
  %20 = getelementptr inbounds nuw i8, ptr %4, i64 56
  store ptr %8, ptr %20, align 8
  %21 = getelementptr inbounds nuw i8, ptr %4, i64 64
  store i64 1, ptr %21, align 8
  %22 = getelementptr inbounds nuw i8, ptr %4, i64 72
  store ptr @.str.37, ptr %22, align 8
  call void @_ZN4absl12lts_2024072216strings_internal12AppendPiecesEPNSt7__cxx1112basic_stringIcSt11char_traitsIcESaIcEEESt16initializer_listISt17basic_string_viewIcS5_EE(ptr noundef %.0.val, ptr nonnull %4, i64 5)
  call void @llvm.lifetime.end.p0(i64 80, ptr nonnull %4) #19
  call void @llvm.lifetime.end.p0(i64 48, ptr nonnull %5) #19
  ret void
}